target datalayout = "e-m:e-p270:32:32-p271:32:32-p272:64:64-i64:64-i128:128-f80:128-n8:16:32:64-S128"
target triple = "x86_64-pc-linux-gnu"

%struct.Vec_Int_t_ = type { i32, i32, ptr }
%struct.Lpk_Man_t_ = type { ptr, ptr, ptr, i32, i32, i32, i32, [10000 x %struct.Lpk_Cut_t_], [10000 x i32], ptr, ptr, ptr, ptr, i32, i32, i32, [100 x i32], [100 x i32], ptr, ptr, ptr, ptr, ptr, ptr, ptr, [32 x i32], [5 x [16 x ptr]], [8 x ptr], ptr, i32, i32, i32, i32, i32, i32, i32, i32, i32, i32, i32, i32, i32, [17 x i32], i64, i64, i64, i64, i64, i64, i64, i64, i64, i64, i64, i64, i64 }
%struct.Lpk_Cut_t_ = type { i32, [2 x i32], float, i32, [100 x i32], [100 x i32] }
%struct.Kit_DsdMan_t_ = type { i32, i32, ptr, ptr, ptr, ptr, ptr }

; Function Attrs: nounwind uwtable
define internal i32 @Vec_IntSize(ptr noundef %0) #0 {
  %2 = alloca ptr, align 8
  store ptr %0, ptr %2, align 8
  %3 = load ptr, ptr %2, align 8
  %4 = getelementptr inbounds %struct.Vec_Int_t_, ptr %3, i32 0, i32 1
  %5 = load i32, ptr %4, align 4
  ret i32 %5
}

; Function Attrs: nounwind uwtable
define void @Lpk_ComputeSupports(ptr noundef %0, ptr noundef %1, ptr noundef %2) #0 {
  %4 = alloca ptr, align 8
  %5 = alloca ptr, align 8
  %6 = alloca ptr, align 8
  %7 = alloca ptr, align 8
  %8 = alloca i32, align 4
  %9 = alloca i32, align 4
  store ptr %0, ptr %4, align 8
  store ptr %1, ptr %5, align 8
  store ptr %2, ptr %6, align 8
  %10 = load ptr, ptr %4, align 8
  %11 = load ptr, ptr %5, align 8
  %12 = call ptr @Lpk_CutTruth(ptr noundef %10, ptr noundef %11, i32 noundef 1)
  store ptr %12, ptr %7, align 8
  %13 = load ptr, ptr %4, align 8
  %14 = getelementptr inbounds %struct.Lpk_Man_t_, ptr %13, i32 0, i32 28
  %15 = load ptr, ptr %14, align 8
  %16 = getelementptr inbounds %struct.Kit_DsdMan_t_, ptr %15, i32 0, i32 4
  %17 = load ptr, ptr %16, align 8
  %18 = load ptr, ptr %6, align 8
  %19 = load ptr, ptr %5, align 8
  %20 = load i32, ptr %19, align 4
  %21 = and i32 %20, 63
  %22 = load ptr, ptr %4, align 8
  %23 = getelementptr inbounds %struct.Lpk_Man_t_, ptr %22, i32 0, i32 23
  %24 = load ptr, ptr %23, align 8
  %25 = call i32 @Kit_CreateCloudFromTruth(ptr noundef %17, ptr noundef %18, i32 noundef %21, ptr noundef %24)
  store i32 %25, ptr %8, align 4
  %26 = load ptr, ptr %4, align 8
  %27 = getelementptr inbounds %struct.Lpk_Man_t_, ptr %26, i32 0, i32 28
  %28 = load ptr, ptr %27, align 8
  %29 = getelementptr inbounds %struct.Kit_DsdMan_t_, ptr %28, i32 0, i32 4
  %30 = load ptr, ptr %29, align 8
  %31 = load ptr, ptr %7, align 8
  %32 = load ptr, ptr %5, align 8
  %33 = load i32, ptr %32, align 4
  %34 = and i32 %33, 63
  %35 = load ptr, ptr %4, align 8
  %36 = getelementptr inbounds %struct.Lpk_Man_t_, ptr %35, i32 0, i32 24
  %37 = load ptr, ptr %36, align 8
  %38 = call i32 @Kit_CreateCloudFromTruth(ptr noundef %30, ptr noundef %31, i32 noundef %34, ptr noundef %37)
  store i32 %38, ptr %9, align 4
  %39 = load i32, ptr %8, align 4
  %40 = icmp ne i32 %39, 0
  br i1 %40, label %41, label %72

41:                                               ; preds = %3
  %42 = load i32, ptr %9, align 4
  %43 = icmp ne i32 %42, 0
  br i1 %43, label %44, label %72

44:                                               ; preds = %41
  %45 = load ptr, ptr %4, align 8
  %46 = getelementptr inbounds %struct.Lpk_Man_t_, ptr %45, i32 0, i32 23
  %47 = load ptr, ptr %46, align 8
  %48 = call i32 @Vec_IntSize(ptr noundef %47)
  %49 = icmp sgt i32 %48, 1
  br i1 %49, label %50, label %72

50:                                               ; preds = %44
  %51 = load ptr, ptr %4, align 8
  %52 = getelementptr inbounds %struct.Lpk_Man_t_, ptr %51, i32 0, i32 24
  %53 = load ptr, ptr %52, align 8
  %54 = call i32 @Vec_IntSize(ptr noundef %53)
  %55 = icmp sgt i32 %54, 1
  br i1 %55, label %56, label %72

56:                                               ; preds = %50
  %57 = load ptr, ptr %4, align 8
  %58 = getelementptr inbounds %struct.Lpk_Man_t_, ptr %57, i32 0, i32 23
  %59 = load ptr, ptr %58, align 8
  %60 = load ptr, ptr %4, align 8
  %61 = getelementptr inbounds %struct.Lpk_Man_t_, ptr %60, i32 0, i32 24
  %62 = load ptr, ptr %61, align 8
  %63 = load ptr, ptr %5, align 8
  %64 = load i32, ptr %63, align 4
  %65 = and i32 %64, 63
  %66 = load ptr, ptr %4, align 8
  %67 = getelementptr inbounds %struct.Lpk_Man_t_, ptr %66, i32 0, i32 22
  %68 = load ptr, ptr %67, align 8
  %69 = load ptr, ptr %4, align 8
  %70 = getelementptr inbounds %struct.Lpk_Man_t_, ptr %69, i32 0, i32 25
  %71 = getelementptr inbounds [32 x i32], ptr %70, i64 0, i64 0
  call void @Kit_TruthCofSupports(ptr noundef %59, ptr noundef %62, i32 noundef %65, ptr noundef %68, ptr noundef %71)
  br label %79

72:                                               ; preds = %50, %44, %41, %3
  %73 = load ptr, ptr %4, align 8
  %74 = getelementptr inbounds %struct.Lpk_Man_t_, ptr %73, i32 0, i32 25
  %75 = getelementptr inbounds [32 x i32], ptr %74, i64 0, i64 1
  store i32 0, ptr %75, align 4
  %76 = load ptr, ptr %4, align 8
  %77 = getelementptr inbounds %struct.Lpk_Man_t_, ptr %76, i32 0, i32 25
  %78 = getelementptr inbounds [32 x i32], ptr %77, i64 0, i64 0
  store i32 0, ptr %78, align 8
  br label %79

79:                                               ; preds = %72, %56
  ret void
}