; Function Attrs: nounwind uwtable
define void @Lpk_ComputeSupports(ptr noundef %0, ptr noundef %1, ptr noundef %2) local_unnamed_addr #0 {
  %4 = tail call ptr @Lpk_CutTruth(ptr noundef %0, ptr noundef %1, i32 noundef 1) #15
  %5 = getelementptr inbounds nuw i8, ptr %0, i64 8241776
  %6 = load ptr, ptr %5, align 8
  %7 = getelementptr inbounds nuw i8, ptr %6, i64 24
  %8 = load ptr, ptr %7, align 8
  %9 = load i32, ptr %1, align 4
  %10 = and i32 %9, 63
  %11 = getelementptr inbounds nuw i8, ptr %0, i64 8240928
  %12 = load ptr, ptr %11, align 8
  %13 = tail call i32 @Kit_CreateCloudFromTruth(ptr noundef %8, ptr noundef %2, i32 noundef %10, ptr noundef %12) #15
  %14 = load ptr, ptr %5, align 8
  %15 = getelementptr inbounds nuw i8, ptr %14, i64 24
  %16 = load ptr, ptr %15, align 8
  %17 = load i32, ptr %1, align 4
  %18 = and i32 %17, 63
  %19 = getelementptr inbounds nuw i8, ptr %0, i64 8240936
  %20 = load ptr, ptr %19, align 8
  %21 = tail call i32 @Kit_CreateCloudFromTruth(ptr noundef %16, ptr noundef %4, i32 noundef %18, ptr noundef %20) #15
  %22 = icmp ne i32 %13, 0
  %23 = icmp ne i32 %21, 0
  %or.cond = select i1 %22, i1 %23, i1 false
  br i1 %or.cond, label %24, label %38

24:                                               ; preds = %3
  %25 = load ptr, ptr %11, align 8
  %26 = getelementptr i8, ptr %25, i64 4
  %.val = load i32, ptr %26, align 4
  %27 = icmp sgt i32 %.val, 1
  br i1 %27, label %28, label %38

28:                                               ; preds = %24
  %29 = load ptr, ptr %19, align 8
  %30 = getelementptr i8, ptr %29, i64 4
  %.val21 = load i32, ptr %30, align 4
  %31 = icmp sgt i32 %.val21, 1
  br i1 %31, label %32, label %38

32:                                               ; preds = %28
  %33 = load i32, ptr %1, align 4
  %34 = and i32 %33, 63
  %35 = getelementptr inbounds nuw i8, ptr %0, i64 8240920
  %36 = load ptr, ptr %35, align 8
  %37 = getelementptr inbounds nuw i8, ptr %0, i64 8240944
  tail call void @Kit_TruthCofSupports(ptr noundef nonnull %25, ptr noundef nonnull %29, i32 noundef %34, ptr noundef %36, ptr noundef nonnull %37) #15
  br label %41

38:                                               ; preds = %28, %24, %3
  %39 = getelementptr inbounds nuw i8, ptr %0, i64 8240944
  %40 = getelementptr inbounds nuw i8, ptr %0, i64 8240948
  store i32 0, ptr %40, align 4
  store i32 0, ptr %39, align 8
  br label %41

41:                                               ; preds = %38, %32
  ret void
}